target datalayout = "e-m:e-p270:32:32-p271:32:32-p272:64:64-i64:64-i128:128-f80:128-n8:16:32:64-S128"
target triple = "x86_64-pc-linux-gnu"

; Function Attrs: nounwind uwtable
define internal i64 @esc_encode(ptr noundef %0, i64 noundef %1, ptr noundef %2) #0 {
  %4 = alloca ptr, align 8
  %5 = alloca i64, align 8
  %6 = alloca ptr, align 8
  %7 = alloca ptr, align 8
  %8 = alloca ptr, align 8
  %9 = alloca i64, align 8
  %10 = alloca i8, align 1
  store ptr %0, ptr %4, align 8
  store i64 %1, ptr %5, align 8
  store ptr %2, ptr %6, align 8
  call void @llvm.lifetime.start.p0(i64 8, ptr %7) #6
  %11 = load ptr, ptr %4, align 8
  %12 = load i64, ptr %5, align 8
  %13 = getelementptr inbounds nuw i8, ptr %11, i64 %12
  store ptr %13, ptr %7, align 8
  call void @llvm.lifetime.start.p0(i64 8, ptr %8) #6
  %14 = load ptr, ptr %6, align 8
  store ptr %14, ptr %8, align 8
  call void @llvm.lifetime.start.p0(i64 8, ptr %9) #6
  store i64 0, ptr %9, align 8
  br label %15

15:                                               ; preds = %79, %3
  %16 = load ptr, ptr %4, align 8
  %17 = load ptr, ptr %7, align 8
  %18 = icmp ult ptr %16, %17
  br i1 %18, label %19, label %82

19:                                               ; preds = %15
  call void @llvm.lifetime.start.p0(i64 1, ptr %10) #6
  %20 = load ptr, ptr %4, align 8
  %21 = load i8, ptr %20, align 1
  store i8 %21, ptr %10, align 1
  %22 = load i8, ptr %10, align 1
  %23 = zext i8 %22 to i32
  %24 = icmp eq i32 %23, 0
  br i1 %24, label %30, label %25

25:                                               ; preds = %19
  %26 = load i8, ptr %10, align 1
  %27 = zext i8 %26 to i32
  %28 = and i32 %27, 128
  %29 = icmp ne i32 %28, 0
  br i1 %29, label %30, label %59

30:                                               ; preds = %25, %19
  %31 = load ptr, ptr %8, align 8
  %32 = getelementptr inbounds i8, ptr %31, i64 0
  store i8 92, ptr %32, align 1
  %33 = load i8, ptr %10, align 1
  %34 = zext i8 %33 to i32
  %35 = ashr i32 %34, 6
  %36 = add i32 %35, 48
  %37 = trunc i32 %36 to i8
  %38 = load ptr, ptr %8, align 8
  %39 = getelementptr inbounds i8, ptr %38, i64 1
  store i8 %37, ptr %39, align 1
  %40 = load i8, ptr %10, align 1
  %41 = zext i8 %40 to i32
  %42 = ashr i32 %41, 3
  %43 = and i32 %42, 7
  %44 = add i32 %43, 48
  %45 = trunc i32 %44 to i8
  %46 = load ptr, ptr %8, align 8
  %47 = getelementptr inbounds i8, ptr %46, i64 2
  store i8 %45, ptr %47, align 1
  %48 = load i8, ptr %10, align 1
  %49 = zext i8 %48 to i32
  %50 = and i32 %49, 7
  %51 = add i32 %50, 48
  %52 = trunc i32 %51 to i8
  %53 = load ptr, ptr %8, align 8
  %54 = getelementptr inbounds i8, ptr %53, i64 3
  store i8 %52, ptr %54, align 1
  %55 = load ptr, ptr %8, align 8
  %56 = getelementptr inbounds i8, ptr %55, i64 4
  store ptr %56, ptr %8, align 8
  %57 = load i64, ptr %9, align 8
  %58 = add i64 %57, 4
  store i64 %58, ptr %9, align 8
  br label %79

59:                                               ; preds = %25
  %60 = load i8, ptr %10, align 1
  %61 = zext i8 %60 to i32
  %62 = icmp eq i32 %61, 92
  br i1 %62, label %63, label %72

63:                                               ; preds = %59
  %64 = load ptr, ptr %8, align 8
  %65 = getelementptr inbounds i8, ptr %64, i64 0
  store i8 92, ptr %65, align 1
  %66 = load ptr, ptr %8, align 8
  %67 = getelementptr inbounds i8, ptr %66, i64 1
  store i8 92, ptr %67, align 1
  %68 = load ptr, ptr %8, align 8
  %69 = getelementptr inbounds i8, ptr %68, i64 2
  store ptr %69, ptr %8, align 8
  %70 = load i64, ptr %9, align 8
  %71 = add i64 %70, 2
  store i64 %71, ptr %9, align 8
  br label %78

72:                                               ; preds = %59
  %73 = load i8, ptr %10, align 1
  %74 = load ptr, ptr %8, align 8
  %75 = getelementptr inbounds nuw i8, ptr %74, i32 1
  store ptr %75, ptr %8, align 8
  store i8 %73, ptr %74, align 1
  %76 = load i64, ptr %9, align 8
  %77 = add i64 %76, 1
  store i64 %77, ptr %9, align 8
  br label %78

78:                                               ; preds = %72, %63
  br label %79

79:                                               ; preds = %78, %30
  %80 = load ptr, ptr %4, align 8
  %81 = getelementptr inbounds nuw i8, ptr %80, i32 1
  store ptr %81, ptr %4, align 8
  call void @llvm.lifetime.end.p0(i64 1, ptr %10) #6
  br label %15, !llvm.loop !12

82:                                               ; preds = %15
  %83 = load i64, ptr %9, align 8
  call void @llvm.lifetime.end.p0(i64 8, ptr %9) #6
  call void @llvm.lifetime.end.p0(i64 8, ptr %8) #6
  call void @llvm.lifetime.end.p0(i64 8, ptr %7) #6
  ret i64 %83
}