; Function Attrs: nofree norecurse nosync nounwind memory(argmem: readwrite) uwtable
define internal i64 @esc_encode(ptr noundef readonly captures(address) %0, i64 noundef %1, ptr noundef writeonly captures(none) %2) #3 {
  %4 = getelementptr inbounds nuw i8, ptr %0, i64 %1
  %.not = icmp eq i64 %1, 0
  br i1 %.not, label %._crit_edge, label %.lr.ph

.lr.ph:                                           ; preds = %3, %25
  %.032 = phi ptr [ %27, %25 ], [ %0, %3 ]
  %.02631 = phi i64 [ %26, %25 ], [ 0, %3 ]
  %.02730 = phi ptr [ %.128, %25 ], [ %2, %3 ]
  %5 = load i8, ptr %.032, align 1
  %or.cond = icmp sgt i8 %5, 0
  br i1 %or.cond, label %18, label %6

6:                                                ; preds = %.lr.ph
  store i8 92, ptr %.02730, align 1
  %7 = lshr i8 %5, 6
  %8 = or disjoint i8 %7, 48
  %9 = getelementptr inbounds nuw i8, ptr %.02730, i64 1
  store i8 %8, ptr %9, align 1
  %10 = lshr i8 %5, 3
  %11 = and i8 %10, 7
  %12 = or disjoint i8 %11, 48
  %13 = getelementptr inbounds nuw i8, ptr %.02730, i64 2
  store i8 %12, ptr %13, align 1
  %14 = and i8 %5, 7
  %15 = or disjoint i8 %14, 48
  %16 = getelementptr inbounds nuw i8, ptr %.02730, i64 3
  store i8 %15, ptr %16, align 1
  %17 = getelementptr inbounds nuw i8, ptr %.02730, i64 4
  br label %25

18:                                               ; preds = %.lr.ph
  %19 = icmp eq i8 %5, 92
  br i1 %19, label %20, label %23

20:                                               ; preds = %18
  store i8 92, ptr %.02730, align 1
  %21 = getelementptr inbounds nuw i8, ptr %.02730, i64 1
  store i8 92, ptr %21, align 1
  %22 = getelementptr inbounds nuw i8, ptr %.02730, i64 2
  br label %25

23:                                               ; preds = %18
  %24 = getelementptr inbounds nuw i8, ptr %.02730, i64 1
  store i8 %5, ptr %.02730, align 1
  br label %25

25:                                               ; preds = %20, %23, %6
  %.sink = phi i64 [ 2, %20 ], [ 1, %23 ], [ 4, %6 ]
  %.128 = phi ptr [ %22, %20 ], [ %24, %23 ], [ %17, %6 ]
  %26 = add i64 %.02631, %.sink
  %27 = getelementptr inbounds nuw i8, ptr %.032, i64 1
  %28 = icmp ult ptr %27, %4
  br i1 %28, label %.lr.ph, label %._crit_edge, !llvm.loop !12

._crit_edge:                                      ; preds = %25, %3
  %.026.lcssa = phi i64 [ 0, %3 ], [ %26, %25 ]
  ret i64 %.026.lcssa
}